	.section	__TEXT,__text,regular,pure_instructions
	.macosx_version_min 10, 10
	.globl	_main
	.align	4, 0x90
_main:                                  ## @main
	.cfi_startproc
## BB#0:
	pushq	%rbp
Ltmp0:
	.cfi_def_cfa_offset 16
Ltmp1:
	.cfi_offset %rbp, -16
	movq	%rsp, %rbp
Ltmp2:
	.cfi_def_cfa_register %rbp
	pushq	%r15
	pushq	%r14
	pushq	%rbx
	subq	$40, %rsp
Ltmp3:
	.cfi_offset %rbx, -40
Ltmp4:
	.cfi_offset %r14, -32
Ltmp5:
	.cfi_offset %r15, -24
	movq	__ZTV7Derived@GOTPCREL(%rip), %rax
	addq	$16, %rax
	movq	%rax, -40(%rbp)
	movq	__ZTV5Dummy@GOTPCREL(%rip), %rax
	addq	$16, %rax
	movq	%rax, -48(%rbp)
	movq	8(%rsi), %rax
	movzbl	(%rax), %eax
	cmpl	$48, %eax
	jne	LBB0_2
## BB#1:
	leaq	-40(%rbp), %r15
	jmp	LBB0_3
LBB0_2:                                 ## %select.mid
	leaq	-48(%rbp), %r15
LBB0_3:                                 ## %select.end
	movl	$0, -52(%rbp)
	movl	$10000000, %ebx         ## imm = 0x989680
	callq	__ZNSt3__16chrono12steady_clock3nowEv
	movq	%rax, %r14
	.align	4, 0x90
LBB0_4:                                 ## =>This Inner Loop Header: Depth=1
	movq	(%r15), %rax
	movq	(%rax), %rax
	movl	-52(%rbp), %esi
	movq	%r15, %rdi
	callq	*%rax
	movl	%eax, -52(%rbp)
	decl	%ebx
	jne	LBB0_4
## BB#5:
	callq	__ZNSt3__16chrono12steady_clock3nowEv
	subq	%r14, %rax
	movabsq	$2361183241434822607, %rcx ## imm = 0x20C49BA5E353F7CF
	imulq	%rcx
	movq	%rdx, %rax
	shrq	$63, %rax
	sarq	$7, %rdx
	leaq	(%rdx,%rax), %rsi
	movq	__ZNSt3__14coutE@GOTPCREL(%rip), %rdi
	callq	__ZNSt3__113basic_ostreamIcNS_11char_traitsIcEEElsEx
	movb	$10, -25(%rbp)
	leaq	-25(%rbp), %rsi
	movl	$1, %edx
	movq	%rax, %rdi
	callq	__ZNSt3__124__put_character_sequenceIcNS_11char_traitsIcEEEERNS_13basic_ostreamIT_T0_EES7_PKS4_m
	xorl	%eax, %eax
	addq	$40, %rsp
	popq	%rbx
	popq	%r14
	popq	%r15
	popq	%rbp
	retq
	.cfi_endproc

	.section	__TEXT,__textcoal_nt,coalesced,pure_instructions
	.globl	__ZN7Derived12fun_functionEi
	.weak_def_can_be_hidden	__ZN7Derived12fun_functionEi
	.align	4, 0x90
__ZN7Derived12fun_functionEi:           ## @_ZN7Derived12fun_functionEi
	.cfi_startproc
## BB#0:
	pushq	%rbp
Ltmp6:
	.cfi_def_cfa_offset 16
Ltmp7:
	.cfi_offset %rbp, -16
	movq	%rsp, %rbp
Ltmp8:
	.cfi_def_cfa_register %rbp
	movl	%esi, -4(%rbp)
	movl	-4(%rbp), %eax
	incl	%eax
	movl	%eax, -4(%rbp)
	popq	%rbp
	retq
	.cfi_endproc

	.globl	__ZN5Dummy12fun_functionEi
	.weak_def_can_be_hidden	__ZN5Dummy12fun_functionEi
	.align	4, 0x90
__ZN5Dummy12fun_functionEi:             ## @_ZN5Dummy12fun_functionEi
	.cfi_startproc
## BB#0:
	pushq	%rbp
Ltmp9:
	.cfi_def_cfa_offset 16
Ltmp10:
	.cfi_offset %rbp, -16
	movq	%rsp, %rbp
Ltmp11:
	.cfi_def_cfa_register %rbp
	movl	%esi, -4(%rbp)
	movl	-4(%rbp), %eax
	incl	%eax
	movl	%eax, -4(%rbp)
	popq	%rbp
	retq
	.cfi_endproc

	.globl	__ZNSt3__124__put_character_sequenceIcNS_11char_traitsIcEEEERNS_13basic_ostreamIT_T0_EES7_PKS4_m
	.weak_def_can_be_hidden	__ZNSt3__124__put_character_sequenceIcNS_11char_traitsIcEEEERNS_13basic_ostreamIT_T0_EES7_PKS4_m
	.align	4, 0x90
__ZNSt3__124__put_character_sequenceIcNS_11char_traitsIcEEEERNS_13basic_ostreamIT_T0_EES7_PKS4_m: ## @_ZNSt3__124__put_character_sequenceIcNS_11char_traitsIcEEEERNS_13basic_ostreamIT_T0_EES7_PKS4_m
Lfunc_begin3:
	.cfi_startproc
	.cfi_personality 155, ___gxx_personality_v0
	.cfi_lsda 16, Lexception3
## BB#0:
	pushq	%rbp
Ltmp33:
	.cfi_def_cfa_offset 16
Ltmp34:
	.cfi_offset %rbp, -16
	movq	%rsp, %rbp
Ltmp35:
	.cfi_def_cfa_register %rbp
	pushq	%r15
	pushq	%r14
	pushq	%r13
	pushq	%r12
	pushq	%rbx
	subq	$56, %rsp
Ltmp36:
	.cfi_offset %rbx, -56
Ltmp37:
	.cfi_offset %r12, -48
Ltmp38:
	.cfi_offset %r13, -40
Ltmp39:
	.cfi_offset %r14, -32
Ltmp40:
	.cfi_offset %r15, -24
	movq	%rdx, %r14
	movq	%rsi, %r15
	movq	%rdi, %rbx
Ltmp12:
	leaq	-64(%rbp), %rdi
	movq	%rbx, %rsi
	callq	__ZNSt3__113basic_ostreamIcNS_11char_traitsIcEEE6sentryC1ERS3_
Ltmp13:
## BB#1:
	cmpb	$0, -64(%rbp)
	je	LBB3_12
## BB#2:
	movq	(%rbx), %rax
	movq	-24(%rax), %r12
	movq	40(%r12,%rbx), %rdi
	movl	$176, %eax
	andl	8(%r12,%rbx), %eax
	cmpl	$32, %eax
	movq	%r15, %r13
	jne	LBB3_4
## BB#3:
	leaq	(%r15,%r14), %r13
LBB3_4:
	leaq	(%rbx,%r12), %r8
	movl	144(%rbx,%r12), %eax
	cmpl	$-1, %eax
	jne	LBB3_9
## BB#5:
Ltmp15:
	movq	%rdi, -72(%rbp)         ## 8-byte Spill
	leaq	-48(%rbp), %rdi
	movq	%r8, %rsi
	movq	%r8, -80(%rbp)          ## 8-byte Spill
	callq	__ZNKSt3__18ios_base6getlocEv
Ltmp16:
## BB#6:                                ## %.noexc
Ltmp17:
	movq	__ZNSt3__15ctypeIcE2idE@GOTPCREL(%rip), %rsi
	leaq	-48(%rbp), %rdi
	callq	__ZNKSt3__16locale9use_facetERNS0_2idE
Ltmp18:
## BB#7:
	movq	(%rax), %rcx
	movq	56(%rcx), %rcx
Ltmp19:
	movl	$32, %esi
	movq	%rax, %rdi
	callq	*%rcx
	movb	%al, -81(%rbp)          ## 1-byte Spill
Ltmp20:
## BB#8:                                ## %_ZNKSt3__19basic_iosIcNS_11char_traitsIcEEE5widenEc.exit.i
	leaq	-48(%rbp), %rdi
	callq	__ZNSt3__16localeD1Ev
	movsbl	-81(%rbp), %eax         ## 1-byte Folded Reload
	movl	%eax, 144(%rbx,%r12)
	movq	-72(%rbp), %rdi         ## 8-byte Reload
	movq	-80(%rbp), %r8          ## 8-byte Reload
LBB3_9:
	addq	%r15, %r14
Ltmp22:
	movsbl	%al, %r9d
	movq	%r15, %rsi
	movq	%r13, %rdx
	movq	%r14, %rcx
	callq	__ZNSt3__116__pad_and_outputIcNS_11char_traitsIcEEEENS_19ostreambuf_iteratorIT_T0_EES6_PKS4_S8_S8_RNS_8ios_baseES4_
Ltmp23:
## BB#10:
	testq	%rax, %rax
	jne	LBB3_12
## BB#11:
	movq	(%rbx), %rax
	movq	-24(%rax), %rax
	leaq	(%rbx,%rax), %rdi
	movl	32(%rbx,%rax), %esi
	orl	$5, %esi
Ltmp24:
	callq	__ZNSt3__18ios_base5clearEj
Ltmp25:
LBB3_12:                                ## %_ZNSt3__19basic_iosIcNS_11char_traitsIcEEE8setstateEj.exit
	leaq	-64(%rbp), %rdi
	callq	__ZNSt3__113basic_ostreamIcNS_11char_traitsIcEEE6sentryD1Ev
LBB3_17:
	movq	%rbx, %rax
	addq	$56, %rsp
	popq	%rbx
	popq	%r12
	popq	%r13
	popq	%r14
	popq	%r15
	popq	%rbp
	retq
LBB3_13:
Ltmp26:
	movq	%rax, %r14
	jmp	LBB3_14
LBB3_22:
Ltmp14:
	movq	%rax, %r14
	jmp	LBB3_15
LBB3_21:
Ltmp21:
	movq	%rax, %r14
	leaq	-48(%rbp), %rdi
	callq	__ZNSt3__16localeD1Ev
LBB3_14:                                ## %.body
	leaq	-64(%rbp), %rdi
	callq	__ZNSt3__113basic_ostreamIcNS_11char_traitsIcEEE6sentryD1Ev
LBB3_15:
	movq	%rbx, %r15
	movq	%r14, %rdi
	callq	___cxa_begin_catch
	movq	(%rbx), %rax
	addq	-24(%rax), %r15
Ltmp27:
	movq	%r15, %rdi
	callq	__ZNSt3__18ios_base33__set_badbit_and_consider_rethrowEv
Ltmp28:
## BB#16:
	callq	___cxa_end_catch
	jmp	LBB3_17
LBB3_18:
Ltmp29:
	movq	%rax, %rbx
Ltmp30:
	callq	___cxa_end_catch
Ltmp31:
## BB#19:
	movq	%rbx, %rdi
	callq	__Unwind_Resume
LBB3_20:
Ltmp32:
	movq	%rax, %rdi
	callq	___clang_call_terminate
Lfunc_end3:
	.cfi_endproc
	.section	__TEXT,__gcc_except_tab
	.align	2
GCC_except_table3:
Lexception3:
	.byte	255                     ## @LPStart Encoding = omit
	.byte	155                     ## @TType Encoding = indirect pcrel sdata4
	.byte	125                     ## @TType base offset
	.byte	3                       ## Call site Encoding = udata4
	.byte	117                     ## Call site table length
Lset0 = Ltmp12-Lfunc_begin3             ## >> Call Site 1 <<
	.long	Lset0
Lset1 = Ltmp13-Ltmp12                   ##   Call between Ltmp12 and Ltmp13
	.long	Lset1
Lset2 = Ltmp14-Lfunc_begin3             ##     jumps to Ltmp14
	.long	Lset2
	.byte	1                       ##   On action: 1
Lset3 = Ltmp15-Lfunc_begin3             ## >> Call Site 2 <<
	.long	Lset3
Lset4 = Ltmp16-Ltmp15                   ##   Call between Ltmp15 and Ltmp16
	.long	Lset4
Lset5 = Ltmp26-Lfunc_begin3             ##     jumps to Ltmp26
	.long	Lset5
	.byte	1                       ##   On action: 1
Lset6 = Ltmp17-Lfunc_begin3             ## >> Call Site 3 <<
	.long	Lset6
Lset7 = Ltmp20-Ltmp17                   ##   Call between Ltmp17 and Ltmp20
	.long	Lset7
Lset8 = Ltmp21-Lfunc_begin3             ##     jumps to Ltmp21
	.long	Lset8
	.byte	1                       ##   On action: 1
Lset9 = Ltmp22-Lfunc_begin3             ## >> Call Site 4 <<
	.long	Lset9
Lset10 = Ltmp25-Ltmp22                  ##   Call between Ltmp22 and Ltmp25
	.long	Lset10
Lset11 = Ltmp26-Lfunc_begin3            ##     jumps to Ltmp26
	.long	Lset11
	.byte	1                       ##   On action: 1
Lset12 = Ltmp25-Lfunc_begin3            ## >> Call Site 5 <<
	.long	Lset12
Lset13 = Ltmp27-Ltmp25                  ##   Call between Ltmp25 and Ltmp27
	.long	Lset13
	.long	0                       ##     has no landing pad
	.byte	0                       ##   On action: cleanup
Lset14 = Ltmp27-Lfunc_begin3            ## >> Call Site 6 <<
	.long	Lset14
Lset15 = Ltmp28-Ltmp27                  ##   Call between Ltmp27 and Ltmp28
	.long	Lset15
Lset16 = Ltmp29-Lfunc_begin3            ##     jumps to Ltmp29
	.long	Lset16
	.byte	0                       ##   On action: cleanup
Lset17 = Ltmp28-Lfunc_begin3            ## >> Call Site 7 <<
	.long	Lset17
Lset18 = Ltmp30-Ltmp28                  ##   Call between Ltmp28 and Ltmp30
	.long	Lset18
	.long	0                       ##     has no landing pad
	.byte	0                       ##   On action: cleanup
Lset19 = Ltmp30-Lfunc_begin3            ## >> Call Site 8 <<
	.long	Lset19
Lset20 = Ltmp31-Ltmp30                  ##   Call between Ltmp30 and Ltmp31
	.long	Lset20
Lset21 = Ltmp32-Lfunc_begin3            ##     jumps to Ltmp32
	.long	Lset21
	.byte	1                       ##   On action: 1
Lset22 = Ltmp31-Lfunc_begin3            ## >> Call Site 9 <<
	.long	Lset22
Lset23 = Lfunc_end3-Ltmp31              ##   Call between Ltmp31 and Lfunc_end3
	.long	Lset23
	.long	0                       ##     has no landing pad
	.byte	0                       ##   On action: cleanup
	.byte	1                       ## >> Action Record 1 <<
                                        ##   Catch TypeInfo 1
	.byte	0                       ##   No further actions
                                        ## >> Catch TypeInfos <<
	.long	0                       ## TypeInfo 1
	.align	2

	.section	__TEXT,__textcoal_nt,coalesced,pure_instructions
	.private_extern	__ZNSt3__116__pad_and_outputIcNS_11char_traitsIcEEEENS_19ostreambuf_iteratorIT_T0_EES6_PKS4_S8_S8_RNS_8ios_baseES4_
	.globl	__ZNSt3__116__pad_and_outputIcNS_11char_traitsIcEEEENS_19ostreambuf_iteratorIT_T0_EES6_PKS4_S8_S8_RNS_8ios_baseES4_
	.weak_def_can_be_hidden	__ZNSt3__116__pad_and_outputIcNS_11char_traitsIcEEEENS_19ostreambuf_iteratorIT_T0_EES6_PKS4_S8_S8_RNS_8ios_baseES4_
	.align	4, 0x90
__ZNSt3__116__pad_and_outputIcNS_11char_traitsIcEEEENS_19ostreambuf_iteratorIT_T0_EES6_PKS4_S8_S8_RNS_8ios_baseES4_: ## @_ZNSt3__116__pad_and_outputIcNS_11char_traitsIcEEEENS_19ostreambuf_iteratorIT_T0_EES6_PKS4_S8_S8_RNS_8ios_baseES4_
Lfunc_begin4:
	.cfi_startproc
	.cfi_personality 155, ___gxx_personality_v0
	.cfi_lsda 16, Lexception4
## BB#0:
	pushq	%rbp
Ltmp44:
	.cfi_def_cfa_offset 16
Ltmp45:
	.cfi_offset %rbp, -16
	movq	%rsp, %rbp
Ltmp46:
	.cfi_def_cfa_register %rbp
	pushq	%r15
	pushq	%r14
	pushq	%r13
	pushq	%r12
	pushq	%rbx
	subq	$40, %rsp
Ltmp47:
	.cfi_offset %rbx, -56
Ltmp48:
	.cfi_offset %r12, -48
Ltmp49:
	.cfi_offset %r13, -40
Ltmp50:
	.cfi_offset %r14, -32
Ltmp51:
	.cfi_offset %r15, -24
	movq	%rcx, %r14
	movq	%rdx, %rbx
	movq	%rdi, %r13
	xorl	%eax, %eax
	testq	%r13, %r13
	je	LBB4_12
## BB#1:
	movq	%r14, %rax
	subq	%rsi, %rax
	movq	24(%r8), %rcx
	xorl	%r15d, %r15d
	subq	%rax, %rcx
	cmovgq	%rcx, %r15
	movq	%rbx, %r12
	subq	%rsi, %r12
	testq	%r12, %r12
	jle	LBB4_3
## BB#2:
	movq	(%r13), %rax
	movq	%r13, %rdi
	movq	%r12, %rdx
	movq	%rbx, -80(%rbp)         ## 8-byte Spill
	movq	%r14, -72(%rbp)         ## 8-byte Spill
	movq	%r8, %rbx
	movl	%r9d, %r14d
	callq	*96(%rax)
	movl	%r14d, %r9d
	movq	%rbx, %r8
	movq	-72(%rbp), %r14         ## 8-byte Reload
	movq	-80(%rbp), %rbx         ## 8-byte Reload
	movq	%rax, %rcx
	xorl	%eax, %eax
	cmpq	%r12, %rcx
	jne	LBB4_12
LBB4_3:
	testq	%r15, %r15
	jle	LBB4_9
## BB#4:
	movq	%r8, -72(%rbp)          ## 8-byte Spill
	movsbl	%r9b, %edx
	leaq	-64(%rbp), %rdi
	movq	%r15, %rsi
	callq	__ZNSt3__112basic_stringIcNS_11char_traitsIcEENS_9allocatorIcEEE6__initEmc
	testb	$1, -64(%rbp)
	jne	LBB4_5
## BB#6:
	movq	%r14, %r12
	leaq	-63(%rbp), %rsi
	jmp	LBB4_7
LBB4_5:
	movq	%r14, %r12
	movq	-48(%rbp), %rsi
LBB4_7:                                 ## %_ZNKSt3__112basic_stringIcNS_11char_traitsIcEENS_9allocatorIcEEE4dataEv.exit
	movq	(%r13), %rax
	movq	96(%rax), %rax
Ltmp41:
	movq	%r13, %rdi
	movq	%r15, %rdx
	callq	*%rax
	movq	%rax, %r14
Ltmp42:
## BB#8:                                ## %_ZNSt3__115basic_streambufIcNS_11char_traitsIcEEE5sputnEPKcl.exit
	leaq	-64(%rbp), %rdi
	callq	__ZNSt3__112basic_stringIcNS_11char_traitsIcEENS_9allocatorIcEEED1Ev
	xorl	%eax, %eax
	cmpq	%r15, %r14
	cmovneq	%rax, %r13
	movq	-72(%rbp), %r8          ## 8-byte Reload
	movq	%r12, %r14
	jne	LBB4_12
LBB4_9:
	subq	%rbx, %r14
	testq	%r14, %r14
	jle	LBB4_11
## BB#10:
	movq	(%r13), %rax
	movq	%r13, %rdi
	movq	%rbx, %rsi
	movq	%r14, %rdx
	movq	%r8, %rbx
	callq	*96(%rax)
	movq	%rbx, %r8
	movq	%rax, %rcx
	xorl	%eax, %eax
	cmpq	%r14, %rcx
	jne	LBB4_12
LBB4_11:
	movq	$0, 24(%r8)
	movq	%r13, %rax
LBB4_12:
	addq	$40, %rsp
	popq	%rbx
	popq	%r12
	popq	%r13
	popq	%r14
	popq	%r15
	popq	%rbp
	retq
LBB4_13:
Ltmp43:
	movq	%rax, %rbx
	leaq	-64(%rbp), %rdi
	callq	__ZNSt3__112basic_stringIcNS_11char_traitsIcEENS_9allocatorIcEEED1Ev
	movq	%rbx, %rdi
	callq	__Unwind_Resume
Lfunc_end4:
	.cfi_endproc
	.section	__TEXT,__gcc_except_tab
	.align	2
GCC_except_table4:
Lexception4:
	.byte	255                     ## @LPStart Encoding = omit
	.byte	155                     ## @TType Encoding = indirect pcrel sdata4
	.byte	41                      ## @TType base offset
	.byte	3                       ## Call site Encoding = udata4
	.byte	39                      ## Call site table length
Lset24 = Lfunc_begin4-Lfunc_begin4      ## >> Call Site 1 <<
	.long	Lset24
Lset25 = Ltmp41-Lfunc_begin4            ##   Call between Lfunc_begin4 and Ltmp41
	.long	Lset25
	.long	0                       ##     has no landing pad
	.byte	0                       ##   On action: cleanup
Lset26 = Ltmp41-Lfunc_begin4            ## >> Call Site 2 <<
	.long	Lset26
Lset27 = Ltmp42-Ltmp41                  ##   Call between Ltmp41 and Ltmp42
	.long	Lset27
Lset28 = Ltmp43-Lfunc_begin4            ##     jumps to Ltmp43
	.long	Lset28
	.byte	0                       ##   On action: cleanup
Lset29 = Ltmp42-Lfunc_begin4            ## >> Call Site 3 <<
	.long	Lset29
Lset30 = Lfunc_end4-Ltmp42              ##   Call between Ltmp42 and Lfunc_end4
	.long	Lset30
	.long	0                       ##     has no landing pad
	.byte	0                       ##   On action: cleanup
	.align	2

	.section	__TEXT,__textcoal_nt,coalesced,pure_instructions
	.private_extern	___clang_call_terminate
	.globl	___clang_call_terminate
	.weak_def_can_be_hidden	___clang_call_terminate
	.align	4, 0x90
___clang_call_terminate:                ## @__clang_call_terminate
## BB#0:
	pushq	%rbp
	movq	%rsp, %rbp
	callq	___cxa_begin_catch
	callq	__ZSt9terminatev

	.section	__DATA,__datacoal_nt,coalesced
	.globl	__ZTV7Derived           ## @_ZTV7Derived
	.weak_def_can_be_hidden	__ZTV7Derived
	.align	3
__ZTV7Derived:
	.quad	0
	.quad	__ZTI7Derived
	.quad	__ZN7Derived12fun_functionEi

	.section	__TEXT,__const_coal,coalesced
	.globl	__ZTS7Derived           ## @_ZTS7Derived
	.weak_definition	__ZTS7Derived
__ZTS7Derived:
	.asciz	"7Derived"

	.globl	__ZTS4Base              ## @_ZTS4Base
	.weak_definition	__ZTS4Base
__ZTS4Base:
	.asciz	"4Base"

	.section	__DATA,__datacoal_nt,coalesced
	.globl	__ZTI4Base              ## @_ZTI4Base
	.weak_definition	__ZTI4Base
	.align	3
__ZTI4Base:
	.quad	__ZTVN10__cxxabiv117__class_type_infoE+16
	.quad	__ZTS4Base

	.globl	__ZTI7Derived           ## @_ZTI7Derived
	.weak_definition	__ZTI7Derived
	.align	4
__ZTI7Derived:
	.quad	__ZTVN10__cxxabiv120__si_class_type_infoE+16
	.quad	__ZTS7Derived
	.quad	__ZTI4Base

	.globl	__ZTV5Dummy             ## @_ZTV5Dummy
	.weak_def_can_be_hidden	__ZTV5Dummy
	.align	3
__ZTV5Dummy:
	.quad	0
	.quad	__ZTI5Dummy
	.quad	__ZN5Dummy12fun_functionEi

	.section	__TEXT,__const_coal,coalesced
	.globl	__ZTS5Dummy             ## @_ZTS5Dummy
	.weak_definition	__ZTS5Dummy
__ZTS5Dummy:
	.asciz	"5Dummy"

	.section	__DATA,__datacoal_nt,coalesced
	.globl	__ZTI5Dummy             ## @_ZTI5Dummy
	.weak_definition	__ZTI5Dummy
	.align	4
__ZTI5Dummy:
	.quad	__ZTVN10__cxxabiv120__si_class_type_infoE+16
	.quad	__ZTS5Dummy
	.quad	__ZTI4Base


.subsections_via_symbols
